; Function Attrs: mustprogress uwtable
define void @_ZNK5arrow8internal3Uri8usernameB5cxx11Ev(ptr noalias sret(%"class.std::__cxx11::basic_string") align 8 %agg.result, ptr nocapture noundef nonnull readonly align 8 dereferenceable(8) %this) local_unnamed_addr #0 align 2 {
entry:
  %0 = load ptr, ptr %this, align 8
  %userInfo = getelementptr inbounds i8, ptr %0, i64 16
  %userInfo.val = load ptr, ptr %userInfo, align 8
  %1 = getelementptr i8, ptr %0, i64 24
  %userInfo.val2 = load ptr, ptr %1, align 8
  %cmp.i = icmp eq ptr %userInfo.val, null
  %sub.ptr.lhs.cast.i = ptrtoint ptr %userInfo.val2 to i64
  %sub.ptr.rhs.cast.i = ptrtoint ptr %userInfo.val to i64
  %sub.ptr.sub.i = sub i64 %sub.ptr.lhs.cast.i, %sub.ptr.rhs.cast.i
  %retval.sroa.3.0.i = select i1 %cmp.i, ptr @.str.5, ptr %userInfo.val
  %retval.sroa.0.0.i = select i1 %cmp.i, i64 0, i64 %sub.ptr.sub.i
  %cmp.i.i.not = icmp eq i64 %retval.sroa.0.0.i, 0
  br i1 %cmp.i.i.not, label %return, label %if.then.i.i

if.then.i.i:                                      ; preds = %entry
  %call.i.i.i = tail call ptr @memchr(ptr noundef nonnull %retval.sroa.3.0.i, i32 noundef 58, i64 noundef %retval.sroa.0.0.i) #18
  %tobool.not.i.i = icmp eq ptr %call.i.i.i, null
  br i1 %tobool.not.i.i, label %return, label %_ZNKSt17basic_string_viewIcSt11char_traitsIcEE13find_first_ofEcm.exit

_ZNKSt17basic_string_viewIcSt11char_traitsIcEE13find_first_ofEcm.exit: ; preds = %if.then.i.i
  %sub.ptr.lhs.cast.i.i = ptrtoint ptr %call.i.i.i to i64
  %sub.ptr.rhs.cast.i.i = ptrtoint ptr %retval.sroa.3.0.i to i64
  %sub.ptr.sub.i.i = sub i64 %sub.ptr.lhs.cast.i.i, %sub.ptr.rhs.cast.i.i
  %cmp = icmp eq i64 %sub.ptr.sub.i.i, -1
  br i1 %cmp, label %return, label %if.else

if.else:                                          ; preds = %_ZNKSt17basic_string_viewIcSt11char_traitsIcEE13find_first_ofEcm.exit
  %.sroa.speculated.i = tail call i64 @llvm.umin.i64(i64 %retval.sroa.0.0.i, i64 %sub.ptr.sub.i.i)
  br label %return

return:                                           ; preds = %_ZNKSt17basic_string_viewIcSt11char_traitsIcEE13find_first_ofEcm.exit, %if.then.i.i, %entry, %if.else
  %.sroa.speculated.i.sink = phi i64 [ %.sroa.speculated.i, %if.else ], [ %retval.sroa.0.0.i, %entry ], [ %retval.sroa.0.0.i, %if.then.i.i ], [ %retval.sroa.0.0.i, %_ZNKSt17basic_string_viewIcSt11char_traitsIcEE13find_first_ofEcm.exit ]
  tail call void @_ZN5arrow8internal11UriUnescapeB5cxx11ESt17basic_string_viewIcSt11char_traitsIcEE(ptr sret(%"class.std::__cxx11::basic_string") align 8 %agg.result, i64 %.sroa.speculated.i.sink, ptr nonnull %retval.sroa.3.0.i)
  ret void
}